target datalayout = "e-m:e-p270:32:32-p271:32:32-p272:64:64-i64:64-i128:128-f80:128-n8:16:32:64-S128"
target triple = "x86_64-pc-linux-gnu"

%struct.ossl_param_st = type { ptr, i32, ptr, i64, i64 }

@.str.2 = private unnamed_addr constant [10 x i8] c"operation\00", align 1
@.str.3 = private unnamed_addr constant [38 x i8] c"../openssl/test/evp_pkey_dhkem_test.c\00", align 1
@rctx = internal global [2 x ptr] zeroinitializer, align 16
@.str.46 = private unnamed_addr constant [5 x i8] c"ikme\00", align 1
@.str.50 = private unnamed_addr constant [2 x i8] c"1\00", align 1
@.str.74 = private unnamed_addr constant [2 x i8] c"0\00", align 1
@.str.89 = private unnamed_addr constant [42 x i8] c"EVP_PKEY_encapsulate_init(ctx, badparams)\00", align 1
@.str.90 = private unnamed_addr constant [11 x i8] c"unknown_op\00", align 1
@.str.91 = private unnamed_addr constant [13 x i8] c"unknownparam\00", align 1

; Function Attrs: nounwind uwtable
define internal i32 @test_set_params(i32 noundef %0) #0 {
  %2 = alloca i32, align 4
  %3 = alloca i32, align 4
  %4 = alloca ptr, align 8
  %5 = alloca [4 x %struct.ossl_param_st], align 16
  %6 = alloca i32, align 4
  %7 = alloca %struct.ossl_param_st, align 8
  %8 = alloca %struct.ossl_param_st, align 8
  %9 = alloca %struct.ossl_param_st, align 8
  %10 = alloca %struct.ossl_param_st, align 8
  %11 = alloca %struct.ossl_param_st, align 8
  %12 = alloca %struct.ossl_param_st, align 8
  %13 = alloca %struct.ossl_param_st, align 8
  %14 = alloca %struct.ossl_param_st, align 8
  %15 = alloca %struct.ossl_param_st, align 8
  %16 = alloca %struct.ossl_param_st, align 8
  %17 = alloca %struct.ossl_param_st, align 8
  %18 = alloca %struct.ossl_param_st, align 8
  store i32 %0, ptr %2, align 4, !tbaa !10
  call void @llvm.lifetime.start.p0(i64 4, ptr %3) #6
  store i32 0, ptr %3, align 4, !tbaa !10
  call void @llvm.lifetime.start.p0(i64 8, ptr %4) #6
  %19 = load i32, ptr %2, align 4, !tbaa !10
  %20 = sext i32 %19 to i64
  %21 = getelementptr inbounds [2 x ptr], ptr @rctx, i64 0, i64 %20
  %22 = load ptr, ptr %21, align 8, !tbaa !19
  store ptr %22, ptr %4, align 8, !tbaa !19
  call void @llvm.lifetime.start.p0(i64 160, ptr %5) #6
  call void @llvm.lifetime.start.p0(i64 4, ptr %6) #6
  store i32 1, ptr %6, align 4, !tbaa !10
  %23 = getelementptr inbounds [4 x %struct.ossl_param_st], ptr %5, i64 0, i64 0
  call void @llvm.lifetime.start.p0(i64 40, ptr %7) #6
  call void @OSSL_PARAM_construct_int(ptr dead_on_unwind writable sret(%struct.ossl_param_st) align 8 %7, ptr noundef @.str.2, ptr noundef %6)
  call void @llvm.memcpy.p0.p0.i64(ptr align 16 %23, ptr align 8 %7, i64 40, i1 false), !tbaa.struct !9
  call void @llvm.lifetime.end.p0(i64 40, ptr %7) #6
  %24 = getelementptr inbounds [4 x %struct.ossl_param_st], ptr %5, i64 0, i64 1
  call void @llvm.lifetime.start.p0(i64 40, ptr %8) #6
  call void @OSSL_PARAM_construct_end(ptr dead_on_unwind writable sret(%struct.ossl_param_st) align 8 %8)
  call void @llvm.memcpy.p0.p0.i64(ptr align 8 %24, ptr align 8 %8, i64 40, i1 false), !tbaa.struct !9
  call void @llvm.lifetime.end.p0(i64 40, ptr %8) #6
  %25 = load ptr, ptr %4, align 8, !tbaa !19
  %26 = getelementptr inbounds [4 x %struct.ossl_param_st], ptr %5, i64 0, i64 0
  %27 = call i32 @EVP_PKEY_encapsulate_init(ptr noundef %25, ptr noundef %26)
  %28 = call i32 @test_int_eq(ptr noundef @.str.3, i32 noundef 353, ptr noundef @.str.89, ptr noundef @.str.74, i32 noundef %27, i32 noundef 0)
  %29 = icmp ne i32 %28, 0
  br i1 %29, label %31, label %30

30:                                               ; preds = %1
  br label %74

31:                                               ; preds = %1
  %32 = getelementptr inbounds [4 x %struct.ossl_param_st], ptr %5, i64 0, i64 0
  call void @llvm.lifetime.start.p0(i64 40, ptr %9) #6
  call void @OSSL_PARAM_construct_utf8_string(ptr dead_on_unwind writable sret(%struct.ossl_param_st) align 8 %9, ptr noundef @.str.2, ptr noundef @.str.90, i64 noundef 0)
  call void @llvm.memcpy.p0.p0.i64(ptr align 16 %32, ptr align 8 %9, i64 40, i1 false), !tbaa.struct !9
  call void @llvm.lifetime.end.p0(i64 40, ptr %9) #6
  %33 = getelementptr inbounds [4 x %struct.ossl_param_st], ptr %5, i64 0, i64 1
  call void @llvm.lifetime.start.p0(i64 40, ptr %10) #6
  call void @OSSL_PARAM_construct_end(ptr dead_on_unwind writable sret(%struct.ossl_param_st) align 8 %10)
  call void @llvm.memcpy.p0.p0.i64(ptr align 8 %33, ptr align 8 %10, i64 40, i1 false), !tbaa.struct !9
  call void @llvm.lifetime.end.p0(i64 40, ptr %10) #6
  %34 = load ptr, ptr %4, align 8, !tbaa !19
  %35 = getelementptr inbounds [4 x %struct.ossl_param_st], ptr %5, i64 0, i64 0
  %36 = call i32 @EVP_PKEY_encapsulate_init(ptr noundef %34, ptr noundef %35)
  %37 = call i32 @test_int_eq(ptr noundef @.str.3, i32 noundef 359, ptr noundef @.str.89, ptr noundef @.str.74, i32 noundef %36, i32 noundef 0)
  %38 = icmp ne i32 %37, 0
  br i1 %38, label %40, label %39

39:                                               ; preds = %31
  br label %74

40:                                               ; preds = %31
  %41 = getelementptr inbounds [4 x %struct.ossl_param_st], ptr %5, i64 0, i64 0
  call void @llvm.lifetime.start.p0(i64 40, ptr %11) #6
  call void @OSSL_PARAM_construct_utf8_string(ptr dead_on_unwind writable sret(%struct.ossl_param_st) align 8 %11, ptr noundef @.str.2, ptr noundef null, i64 noundef 0)
  call void @llvm.memcpy.p0.p0.i64(ptr align 16 %41, ptr align 8 %11, i64 40, i1 false), !tbaa.struct !9
  call void @llvm.lifetime.end.p0(i64 40, ptr %11) #6
  %42 = getelementptr inbounds [4 x %struct.ossl_param_st], ptr %5, i64 0, i64 1
  call void @llvm.lifetime.start.p0(i64 40, ptr %12) #6
  call void @OSSL_PARAM_construct_end(ptr dead_on_unwind writable sret(%struct.ossl_param_st) align 8 %12)
  call void @llvm.memcpy.p0.p0.i64(ptr align 8 %42, ptr align 8 %12, i64 40, i1 false), !tbaa.struct !9
  call void @llvm.lifetime.end.p0(i64 40, ptr %12) #6
  %43 = load ptr, ptr %4, align 8, !tbaa !19
  %44 = getelementptr inbounds [4 x %struct.ossl_param_st], ptr %5, i64 0, i64 0
  %45 = call i32 @EVP_PKEY_encapsulate_init(ptr noundef %43, ptr noundef %44)
  %46 = call i32 @test_int_eq(ptr noundef @.str.3, i32 noundef 366, ptr noundef @.str.89, ptr noundef @.str.74, i32 noundef %45, i32 noundef 0)
  %47 = icmp ne i32 %46, 0
  br i1 %47, label %49, label %48

48:                                               ; preds = %40
  br label %74

49:                                               ; preds = %40
  %50 = getelementptr inbounds [4 x %struct.ossl_param_st], ptr %5, i64 0, i64 0
  call void @llvm.lifetime.start.p0(i64 40, ptr %13) #6
  call void @OSSL_PARAM_construct_int(ptr dead_on_unwind writable sret(%struct.ossl_param_st) align 8 %13, ptr noundef @.str.46, ptr noundef %6)
  call void @llvm.memcpy.p0.p0.i64(ptr align 16 %50, ptr align 8 %13, i64 40, i1 false), !tbaa.struct !9
  call void @llvm.lifetime.end.p0(i64 40, ptr %13) #6
  %51 = getelementptr inbounds [4 x %struct.ossl_param_st], ptr %5, i64 0, i64 1
  call void @llvm.lifetime.start.p0(i64 40, ptr %14) #6
  call void @OSSL_PARAM_construct_end(ptr dead_on_unwind writable sret(%struct.ossl_param_st) align 8 %14)
  call void @llvm.memcpy.p0.p0.i64(ptr align 8 %51, ptr align 8 %14, i64 40, i1 false), !tbaa.struct !9
  call void @llvm.lifetime.end.p0(i64 40, ptr %14) #6
  %52 = load ptr, ptr %4, align 8, !tbaa !19
  %53 = getelementptr inbounds [4 x %struct.ossl_param_st], ptr %5, i64 0, i64 0
  %54 = call i32 @EVP_PKEY_encapsulate_init(ptr noundef %52, ptr noundef %53)
  %55 = call i32 @test_int_eq(ptr noundef @.str.3, i32 noundef 372, ptr noundef @.str.89, ptr noundef @.str.74, i32 noundef %54, i32 noundef 0)
  %56 = icmp ne i32 %55, 0
  br i1 %56, label %58, label %57

57:                                               ; preds = %49
  br label %74

58:                                               ; preds = %49
  %59 = getelementptr inbounds [4 x %struct.ossl_param_st], ptr %5, i64 0, i64 0
  call void @llvm.lifetime.start.p0(i64 40, ptr %15) #6
  call void @OSSL_PARAM_construct_octet_string(ptr dead_on_unwind writable sret(%struct.ossl_param_st) align 8 %15, ptr noundef @.str.46, ptr noundef null, i64 noundef 0)
  call void @llvm.memcpy.p0.p0.i64(ptr align 16 %59, ptr align 8 %15, i64 40, i1 false), !tbaa.struct !9
  call void @llvm.lifetime.end.p0(i64 40, ptr %15) #6
  %60 = getelementptr inbounds [4 x %struct.ossl_param_st], ptr %5, i64 0, i64 1
  call void @llvm.lifetime.start.p0(i64 40, ptr %16) #6
  call void @OSSL_PARAM_construct_end(ptr dead_on_unwind writable sret(%struct.ossl_param_st) align 8 %16)
  call void @llvm.memcpy.p0.p0.i64(ptr align 8 %60, ptr align 8 %16, i64 40, i1 false), !tbaa.struct !9
  call void @llvm.lifetime.end.p0(i64 40, ptr %16) #6
  %61 = load ptr, ptr %4, align 8, !tbaa !19
  %62 = getelementptr inbounds [4 x %struct.ossl_param_st], ptr %5, i64 0, i64 0
  %63 = call i32 @EVP_PKEY_encapsulate_init(ptr noundef %61, ptr noundef %62)
  %64 = call i32 @test_int_eq(ptr noundef @.str.3, i32 noundef 378, ptr noundef @.str.89, ptr noundef @.str.50, i32 noundef %63, i32 noundef 1)
  %65 = icmp ne i32 %64, 0
  br i1 %65, label %67, label %66

66:                                               ; preds = %58
  br label %74

67:                                               ; preds = %58
  %68 = getelementptr inbounds [4 x %struct.ossl_param_st], ptr %5, i64 0, i64 0
  call void @llvm.lifetime.start.p0(i64 40, ptr %17) #6
  call void @OSSL_PARAM_construct_int(ptr dead_on_unwind writable sret(%struct.ossl_param_st) align 8 %17, ptr noundef @.str.91, ptr noundef %6)
  call void @llvm.memcpy.p0.p0.i64(ptr align 16 %68, ptr align 8 %17, i64 40, i1 false), !tbaa.struct !9
  call void @llvm.lifetime.end.p0(i64 40, ptr %17) #6
  %69 = getelementptr inbounds [4 x %struct.ossl_param_st], ptr %5, i64 0, i64 1
  call void @llvm.lifetime.start.p0(i64 40, ptr %18) #6
  call void @OSSL_PARAM_construct_end(ptr dead_on_unwind writable sret(%struct.ossl_param_st) align 8 %18)
  call void @llvm.memcpy.p0.p0.i64(ptr align 8 %69, ptr align 8 %18, i64 40, i1 false), !tbaa.struct !9
  call void @llvm.lifetime.end.p0(i64 40, ptr %18) #6
  %70 = load ptr, ptr %4, align 8, !tbaa !19
  %71 = getelementptr inbounds [4 x %struct.ossl_param_st], ptr %5, i64 0, i64 0
  %72 = call i32 @EVP_PKEY_encapsulate_init(ptr noundef %70, ptr noundef %71)
  %73 = call i32 @test_int_eq(ptr noundef @.str.3, i32 noundef 384, ptr noundef @.str.89, ptr noundef @.str.50, i32 noundef %72, i32 noundef 1)
  store i32 %73, ptr %3, align 4, !tbaa !10
  br label %74

74:                                               ; preds = %67, %66, %57, %48, %39, %30
  %75 = load i32, ptr %3, align 4, !tbaa !10
  call void @llvm.lifetime.end.p0(i64 4, ptr %6) #6
  call void @llvm.lifetime.end.p0(i64 160, ptr %5) #6
  call void @llvm.lifetime.end.p0(i64 8, ptr %4) #6
  call void @llvm.lifetime.end.p0(i64 4, ptr %3) #6
  ret i32 %75
}