; Function Attrs: nounwind uwtable
define internal i32 @test_set_params(i32 noundef %0) #0 {
  %2 = alloca [4 x %struct.ossl_param_st], align 16
  %3 = alloca i32, align 4
  %4 = alloca %struct.ossl_param_st, align 8
  %5 = alloca %struct.ossl_param_st, align 8
  %6 = alloca %struct.ossl_param_st, align 8
  %7 = alloca %struct.ossl_param_st, align 8
  %8 = alloca %struct.ossl_param_st, align 8
  %9 = alloca %struct.ossl_param_st, align 8
  %10 = alloca %struct.ossl_param_st, align 8
  %11 = alloca %struct.ossl_param_st, align 8
  %12 = alloca %struct.ossl_param_st, align 8
  %13 = alloca %struct.ossl_param_st, align 8
  %14 = alloca %struct.ossl_param_st, align 8
  %15 = sext i32 %0 to i64
  %16 = getelementptr inbounds [2 x ptr], ptr @rctx, i64 0, i64 %15
  %17 = load ptr, ptr %16, align 8, !tbaa !19
  call void @llvm.lifetime.start.p0(i64 160, ptr nonnull %2) #5
  call void @llvm.lifetime.start.p0(i64 4, ptr nonnull %3) #5
  store i32 1, ptr %3, align 4, !tbaa !10
  call void @OSSL_PARAM_construct_int(ptr dead_on_unwind nonnull writable sret(%struct.ossl_param_st) align 8 %2, ptr noundef nonnull @.str.2, ptr noundef nonnull %3) #5
  %18 = getelementptr inbounds nuw i8, ptr %2, i64 40
  call void @llvm.lifetime.start.p0(i64 40, ptr nonnull %4) #5
  call void @OSSL_PARAM_construct_end(ptr dead_on_unwind nonnull writable sret(%struct.ossl_param_st) align 8 %4) #5
  call void @llvm.memcpy.p0.p0.i64(ptr noundef nonnull align 8 dereferenceable(40) %18, ptr noundef nonnull align 8 dereferenceable(40) %4, i64 40, i1 false), !tbaa.struct !4
  call void @llvm.lifetime.end.p0(i64 40, ptr nonnull %4) #5
  %19 = call i32 @EVP_PKEY_encapsulate_init(ptr noundef %17, ptr noundef nonnull %2) #5
  %20 = call i32 @test_int_eq(ptr noundef nonnull @.str.3, i32 noundef 353, ptr noundef nonnull @.str.89, ptr noundef nonnull @.str.74, i32 noundef %19, i32 noundef 0) #5
  %.not = icmp eq i32 %20, 0
  br i1 %.not, label %36, label %21

21:                                               ; preds = %1
  call void @llvm.lifetime.start.p0(i64 40, ptr nonnull %5) #5
  call void @OSSL_PARAM_construct_utf8_string(ptr dead_on_unwind nonnull writable sret(%struct.ossl_param_st) align 8 %5, ptr noundef nonnull @.str.2, ptr noundef nonnull @.str.90, i64 noundef 0) #5
  call void @llvm.memcpy.p0.p0.i64(ptr noundef nonnull align 16 dereferenceable(40) %2, ptr noundef nonnull align 8 dereferenceable(40) %5, i64 40, i1 false), !tbaa.struct !4
  call void @llvm.lifetime.end.p0(i64 40, ptr nonnull %5) #5
  call void @llvm.lifetime.start.p0(i64 40, ptr nonnull %6) #5
  call void @OSSL_PARAM_construct_end(ptr dead_on_unwind nonnull writable sret(%struct.ossl_param_st) align 8 %6) #5
  call void @llvm.memcpy.p0.p0.i64(ptr noundef nonnull align 8 dereferenceable(40) %18, ptr noundef nonnull align 8 dereferenceable(40) %6, i64 40, i1 false), !tbaa.struct !4
  call void @llvm.lifetime.end.p0(i64 40, ptr nonnull %6) #5
  %22 = call i32 @EVP_PKEY_encapsulate_init(ptr noundef %17, ptr noundef nonnull %2) #5
  %23 = call i32 @test_int_eq(ptr noundef nonnull @.str.3, i32 noundef 359, ptr noundef nonnull @.str.89, ptr noundef nonnull @.str.74, i32 noundef %22, i32 noundef 0) #5
  %.not7 = icmp eq i32 %23, 0
  br i1 %.not7, label %36, label %24

24:                                               ; preds = %21
  call void @llvm.lifetime.start.p0(i64 40, ptr nonnull %7) #5
  call void @OSSL_PARAM_construct_utf8_string(ptr dead_on_unwind nonnull writable sret(%struct.ossl_param_st) align 8 %7, ptr noundef nonnull @.str.2, ptr noundef null, i64 noundef 0) #5
  call void @llvm.memcpy.p0.p0.i64(ptr noundef nonnull align 16 dereferenceable(40) %2, ptr noundef nonnull align 8 dereferenceable(40) %7, i64 40, i1 false), !tbaa.struct !4
  call void @llvm.lifetime.end.p0(i64 40, ptr nonnull %7) #5
  call void @llvm.lifetime.start.p0(i64 40, ptr nonnull %8) #5
  call void @OSSL_PARAM_construct_end(ptr dead_on_unwind nonnull writable sret(%struct.ossl_param_st) align 8 %8) #5
  call void @llvm.memcpy.p0.p0.i64(ptr noundef nonnull align 8 dereferenceable(40) %18, ptr noundef nonnull align 8 dereferenceable(40) %8, i64 40, i1 false), !tbaa.struct !4
  call void @llvm.lifetime.end.p0(i64 40, ptr nonnull %8) #5
  %25 = call i32 @EVP_PKEY_encapsulate_init(ptr noundef %17, ptr noundef nonnull %2) #5
  %26 = call i32 @test_int_eq(ptr noundef nonnull @.str.3, i32 noundef 366, ptr noundef nonnull @.str.89, ptr noundef nonnull @.str.74, i32 noundef %25, i32 noundef 0) #5
  %.not8 = icmp eq i32 %26, 0
  br i1 %.not8, label %36, label %27

27:                                               ; preds = %24
  call void @llvm.lifetime.start.p0(i64 40, ptr nonnull %9) #5
  call void @OSSL_PARAM_construct_int(ptr dead_on_unwind nonnull writable sret(%struct.ossl_param_st) align 8 %9, ptr noundef nonnull @.str.46, ptr noundef nonnull %3) #5
  call void @llvm.memcpy.p0.p0.i64(ptr noundef nonnull align 16 dereferenceable(40) %2, ptr noundef nonnull align 8 dereferenceable(40) %9, i64 40, i1 false), !tbaa.struct !4
  call void @llvm.lifetime.end.p0(i64 40, ptr nonnull %9) #5
  call void @llvm.lifetime.start.p0(i64 40, ptr nonnull %10) #5
  call void @OSSL_PARAM_construct_end(ptr dead_on_unwind nonnull writable sret(%struct.ossl_param_st) align 8 %10) #5
  call void @llvm.memcpy.p0.p0.i64(ptr noundef nonnull align 8 dereferenceable(40) %18, ptr noundef nonnull align 8 dereferenceable(40) %10, i64 40, i1 false), !tbaa.struct !4
  call void @llvm.lifetime.end.p0(i64 40, ptr nonnull %10) #5
  %28 = call i32 @EVP_PKEY_encapsulate_init(ptr noundef %17, ptr noundef nonnull %2) #5
  %29 = call i32 @test_int_eq(ptr noundef nonnull @.str.3, i32 noundef 372, ptr noundef nonnull @.str.89, ptr noundef nonnull @.str.74, i32 noundef %28, i32 noundef 0) #5
  %.not9 = icmp eq i32 %29, 0
  br i1 %.not9, label %36, label %30

30:                                               ; preds = %27
  call void @llvm.lifetime.start.p0(i64 40, ptr nonnull %11) #5
  call void @OSSL_PARAM_construct_octet_string(ptr dead_on_unwind nonnull writable sret(%struct.ossl_param_st) align 8 %11, ptr noundef nonnull @.str.46, ptr noundef null, i64 noundef 0) #5
  call void @llvm.memcpy.p0.p0.i64(ptr noundef nonnull align 16 dereferenceable(40) %2, ptr noundef nonnull align 8 dereferenceable(40) %11, i64 40, i1 false), !tbaa.struct !4
  call void @llvm.lifetime.end.p0(i64 40, ptr nonnull %11) #5
  call void @llvm.lifetime.start.p0(i64 40, ptr nonnull %12) #5
  call void @OSSL_PARAM_construct_end(ptr dead_on_unwind nonnull writable sret(%struct.ossl_param_st) align 8 %12) #5
  call void @llvm.memcpy.p0.p0.i64(ptr noundef nonnull align 8 dereferenceable(40) %18, ptr noundef nonnull align 8 dereferenceable(40) %12, i64 40, i1 false), !tbaa.struct !4
  call void @llvm.lifetime.end.p0(i64 40, ptr nonnull %12) #5
  %31 = call i32 @EVP_PKEY_encapsulate_init(ptr noundef %17, ptr noundef nonnull %2) #5
  %32 = call i32 @test_int_eq(ptr noundef nonnull @.str.3, i32 noundef 378, ptr noundef nonnull @.str.89, ptr noundef nonnull @.str.50, i32 noundef %31, i32 noundef 1) #5
  %.not10 = icmp eq i32 %32, 0
  br i1 %.not10, label %36, label %33

33:                                               ; preds = %30
  call void @llvm.lifetime.start.p0(i64 40, ptr nonnull %13) #5
  call void @OSSL_PARAM_construct_int(ptr dead_on_unwind nonnull writable sret(%struct.ossl_param_st) align 8 %13, ptr noundef nonnull @.str.91, ptr noundef nonnull %3) #5
  call void @llvm.memcpy.p0.p0.i64(ptr noundef nonnull align 16 dereferenceable(40) %2, ptr noundef nonnull align 8 dereferenceable(40) %13, i64 40, i1 false), !tbaa.struct !4
  call void @llvm.lifetime.end.p0(i64 40, ptr nonnull %13) #5
  call void @llvm.lifetime.start.p0(i64 40, ptr nonnull %14) #5
  call void @OSSL_PARAM_construct_end(ptr dead_on_unwind nonnull writable sret(%struct.ossl_param_st) align 8 %14) #5
  call void @llvm.memcpy.p0.p0.i64(ptr noundef nonnull align 8 dereferenceable(40) %18, ptr noundef nonnull align 8 dereferenceable(40) %14, i64 40, i1 false), !tbaa.struct !4
  call void @llvm.lifetime.end.p0(i64 40, ptr nonnull %14) #5
  %34 = call i32 @EVP_PKEY_encapsulate_init(ptr noundef %17, ptr noundef nonnull %2) #5
  %35 = call i32 @test_int_eq(ptr noundef nonnull @.str.3, i32 noundef 384, ptr noundef nonnull @.str.89, ptr noundef nonnull @.str.50, i32 noundef %34, i32 noundef 1) #5
  br label %36

36:                                               ; preds = %30, %27, %24, %21, %1, %33
  %.0 = phi i32 [ %35, %33 ], [ 0, %30 ], [ 0, %27 ], [ 0, %24 ], [ 0, %21 ], [ 0, %1 ]
  call void @llvm.lifetime.end.p0(i64 4, ptr nonnull %3) #5
  call void @llvm.lifetime.end.p0(i64 160, ptr nonnull %2) #5
  ret i32 %.0
}